; Function Attrs: nofree norecurse nosync nounwind memory(argmem: read) uwtable
define i64 @lv_strlen(ptr nocapture noundef readonly %0) local_unnamed_addr #2 {
  br label %2

2:                                                ; preds = %2, %1
  %.0 = phi i64 [ 0, %1 ], [ %5, %2 ]
  %3 = getelementptr inbounds nuw i8, ptr %0, i64 %.0
  %4 = load i8, ptr %3, align 1, !tbaa !3
  %.not = icmp eq i8 %4, 0
  %5 = add i64 %.0, 1
  br i1 %.not, label %6, label %2, !llvm.loop !19

6:                                                ; preds = %2
  ret i64 %.0
}